; Function Attrs: mustprogress nounwind uwtable
define hidden void @_ZN4cvc58internal6theory4bags9BagSolverD2Ev(ptr noundef nonnull align 8 dereferenceable(240) initializes((0, 8)) %0) unnamed_addr #5 align 2 personality ptr @__gxx_personality_v0 {
  store ptr getelementptr inbounds nuw inrange(-16, 16) (i8, ptr @_ZTVN4cvc58internal6theory4bags9BagSolverE, i64 16), ptr %0, align 8, !tbaa !3
  %2 = getelementptr inbounds nuw i8, ptr %0, i64 232
  %3 = load ptr, ptr %2, align 8, !tbaa !36
  %4 = load i64, ptr %3, align 8
  %5 = and i64 %4, 1152920405095219200
  %.not.i.i = icmp eq i64 %5, 1152920405095219200
  br i1 %.not.i.i, label %_ZN4cvc58internal12NodeTemplateILb1EED2Ev.exit, label %6, !prof !38

6:                                                ; preds = %1
  %7 = add i64 %4, 1152920405095219200
  %8 = and i64 %7, 1152920405095219200
  %9 = and i64 %4, -1152920405095219201
  %10 = or disjoint i64 %8, %9
  store i64 %10, ptr %3, align 8
  %11 = icmp eq i64 %8, 0
  br i1 %11, label %12, label %_ZN4cvc58internal12NodeTemplateILb1EED2Ev.exit, !prof !38

12:                                               ; preds = %6
  invoke void @_ZN4cvc58internal4expr9NodeValue15markForDeletionEv(ptr noundef nonnull align 8 dereferenceable(24) %3)
          to label %_ZN4cvc58internal12NodeTemplateILb1EED2Ev.exit unwind label %13

13:                                               ; preds = %12
  %14 = landingpad { ptr, i32 }
          catch ptr null
  %15 = extractvalue { ptr, i32 } %14, 0
  tail call void @__clang_call_terminate(ptr %15) #26
  unreachable

_ZN4cvc58internal12NodeTemplateILb1EED2Ev.exit:   ; preds = %1, %6, %12
  %16 = getelementptr inbounds nuw i8, ptr %0, i64 224
  %17 = load ptr, ptr %16, align 8, !tbaa !36
  %18 = load i64, ptr %17, align 8
  %19 = and i64 %18, 1152920405095219200
  %.not.i.i1 = icmp eq i64 %19, 1152920405095219200
  br i1 %.not.i.i1, label %_ZN4cvc58internal12NodeTemplateILb1EED2Ev.exit2, label %20, !prof !38

20:                                               ; preds = %_ZN4cvc58internal12NodeTemplateILb1EED2Ev.exit
  %21 = add i64 %18, 1152920405095219200
  %22 = and i64 %21, 1152920405095219200
  %23 = and i64 %18, -1152920405095219201
  %24 = or disjoint i64 %22, %23
  store i64 %24, ptr %17, align 8
  %25 = icmp eq i64 %22, 0
  br i1 %25, label %26, label %_ZN4cvc58internal12NodeTemplateILb1EED2Ev.exit2, !prof !38

26:                                               ; preds = %20
  invoke void @_ZN4cvc58internal4expr9NodeValue15markForDeletionEv(ptr noundef nonnull align 8 dereferenceable(24) %17)
          to label %_ZN4cvc58internal12NodeTemplateILb1EED2Ev.exit2 unwind label %27

27:                                               ; preds = %26
  %28 = landingpad { ptr, i32 }
          catch ptr null
  %29 = extractvalue { ptr, i32 } %28, 0
  tail call void @__clang_call_terminate(ptr %29) #26
  unreachable

_ZN4cvc58internal12NodeTemplateILb1EED2Ev.exit2:  ; preds = %_ZN4cvc58internal12NodeTemplateILb1EED2Ev.exit, %20, %26
  %30 = getelementptr inbounds nuw i8, ptr %0, i64 216
  %31 = load ptr, ptr %30, align 8, !tbaa !36
  %32 = load i64, ptr %31, align 8
  %33 = and i64 %32, 1152920405095219200
  %.not.i.i3 = icmp eq i64 %33, 1152920405095219200
  br i1 %.not.i.i3, label %_ZN4cvc58internal12NodeTemplateILb1EED2Ev.exit4, label %34, !prof !38

34:                                               ; preds = %_ZN4cvc58internal12NodeTemplateILb1EED2Ev.exit2
  %35 = add i64 %32, 1152920405095219200
  %36 = and i64 %35, 1152920405095219200
  %37 = and i64 %32, -1152920405095219201
  %38 = or disjoint i64 %36, %37
  store i64 %38, ptr %31, align 8
  %39 = icmp eq i64 %36, 0
  br i1 %39, label %40, label %_ZN4cvc58internal12NodeTemplateILb1EED2Ev.exit4, !prof !38

40:                                               ; preds = %34
  invoke void @_ZN4cvc58internal4expr9NodeValue15markForDeletionEv(ptr noundef nonnull align 8 dereferenceable(24) %31)
          to label %_ZN4cvc58internal12NodeTemplateILb1EED2Ev.exit4 unwind label %41

41:                                               ; preds = %40
  %42 = landingpad { ptr, i32 }
          catch ptr null
  %43 = extractvalue { ptr, i32 } %42, 0
  tail call void @__clang_call_terminate(ptr %43) #26
  unreachable

_ZN4cvc58internal12NodeTemplateILb1EED2Ev.exit4:  ; preds = %_ZN4cvc58internal12NodeTemplateILb1EED2Ev.exit2, %34, %40
  %44 = getelementptr inbounds nuw i8, ptr %0, i64 208
  %45 = load ptr, ptr %44, align 8, !tbaa !36
  %46 = load i64, ptr %45, align 8
  %47 = and i64 %46, 1152920405095219200
  %.not.i.i5 = icmp eq i64 %47, 1152920405095219200
  br i1 %.not.i.i5, label %_ZN4cvc58internal12NodeTemplateILb1EED2Ev.exit6, label %48, !prof !38

48:                                               ; preds = %_ZN4cvc58internal12NodeTemplateILb1EED2Ev.exit4
  %49 = add i64 %46, 1152920405095219200
  %50 = and i64 %49, 1152920405095219200
  %51 = and i64 %46, -1152920405095219201
  %52 = or disjoint i64 %50, %51
  store i64 %52, ptr %45, align 8
  %53 = icmp eq i64 %50, 0
  br i1 %53, label %54, label %_ZN4cvc58internal12NodeTemplateILb1EED2Ev.exit6, !prof !38

54:                                               ; preds = %48
  invoke void @_ZN4cvc58internal4expr9NodeValue15markForDeletionEv(ptr noundef nonnull align 8 dereferenceable(24) %45)
          to label %_ZN4cvc58internal12NodeTemplateILb1EED2Ev.exit6 unwind label %55

55:                                               ; preds = %54
  %56 = landingpad { ptr, i32 }
          catch ptr null
  %57 = extractvalue { ptr, i32 } %56, 0
  tail call void @__clang_call_terminate(ptr %57) #26
  unreachable

_ZN4cvc58internal12NodeTemplateILb1EED2Ev.exit6:  ; preds = %_ZN4cvc58internal12NodeTemplateILb1EED2Ev.exit4, %48, %54
  %58 = getelementptr inbounds nuw i8, ptr %0, i64 96
  store ptr getelementptr inbounds nuw inrange(-16, 32) (i8, ptr @_ZTVN4cvc57context9CDHashMapINS_8internal12NodeTemplateILb1EEESt10shared_ptrINS1_IS4_St4pairIS4_S4_ESt4hashIS4_EEEES9_EE, i64 16), ptr %58, align 8, !tbaa !3
  invoke void @_ZN4cvc57context10ContextObj7destroyEv(ptr noundef nonnull align 8 dereferenceable(112) %58)
          to label %59 unwind label %60

59:                                               ; preds = %_ZN4cvc58internal12NodeTemplateILb1EED2Ev.exit6
  invoke void @_ZN4cvc57context9CDHashMapINS_8internal12NodeTemplateILb1EEESt10shared_ptrINS1_IS4_St4pairIS4_S4_ESt4hashIS4_EEEES9_E5clearEv(ptr noundef nonnull align 8 dereferenceable(112) %58)
          to label %_ZN4cvc57context9CDHashMapINS_8internal12NodeTemplateILb1EEESt10shared_ptrINS1_IS4_St4pairIS4_S4_ESt4hashIS4_EEEES9_ED2Ev.exit unwind label %60

60:                                               ; preds = %59, %_ZN4cvc58internal12NodeTemplateILb1EED2Ev.exit6
  %61 = landingpad { ptr, i32 }
          catch ptr null
  %62 = extractvalue { ptr, i32 } %61, 0
  tail call void @__clang_call_terminate(ptr %62) #26
  unreachable

_ZN4cvc57context9CDHashMapINS_8internal12NodeTemplateILb1EEESt10shared_ptrINS1_IS4_St4pairIS4_S4_ESt4hashIS4_EEEES9_ED2Ev.exit: ; preds = %59
  %63 = getelementptr inbounds nuw i8, ptr %0, i64 136
  tail call void @_ZNSt10_HashtableIN4cvc58internal12NodeTemplateILb1EEESt4pairIKS3_PNS0_7context11CDOhash_mapIS3_St10shared_ptrINS6_9CDHashMapIS3_S4_IS3_S3_ESt4hashIS3_EEEESC_EEESaISH_ENSt8__detail10_Select1stESt8equal_toIS3_ESC_NSJ_18_Mod_range_hashingENSJ_20_Default_ranged_hashENSJ_20_Prime_rehash_policyENSJ_17_Hashtable_traitsILb1ELb0ELb1EEEED2Ev(ptr noundef nonnull align 8 dereferenceable(56) %63) #24
  %64 = getelementptr inbounds nuw i8, ptr %0, i64 24
  tail call void @_ZN4cvc58internal6theory4bags18InferenceGeneratorD2Ev(ptr noundef nonnull align 8 dereferenceable(56) %64) #24
  ret void
}